target datalayout = "e-m:e-p270:32:32-p271:32:32-p272:64:64-i64:64-i128:128-f80:128-n8:16:32:64-S128"
target triple = "x86_64-pc-linux-gnu"

%struct.lua_State = type { ptr, i8, i8, i8, i8, i16, %union.StkIdRel, ptr, ptr, %union.StkIdRel, %union.StkIdRel, ptr, %union.StkIdRel, ptr, ptr, ptr, %struct.CallInfo, ptr, i64, i32, i32, i32, i32, i32, %struct.anon.2 }
%union.StkIdRel = type { ptr }
%struct.CallInfo = type { %union.StkIdRel, %union.StkIdRel, ptr, ptr, %union.anon, %union.anon.1, i32 }
%union.anon = type { %struct.anon.0 }
%struct.anon.0 = type { ptr, i64, i64 }
%union.anon.1 = type { i32 }
%struct.anon.2 = type { i32, i32 }
%struct.global_State = type { ptr, ptr, i64, i64, i64, i64, %struct.stringtable, %struct.TValue, %struct.TValue, i32, [6 x i8], i8, i8, i8, i8, i8, i8, ptr, ptr, ptr, ptr, ptr, ptr, ptr, ptr, ptr, ptr, ptr, ptr, ptr, ptr, ptr, ptr, ptr, ptr, ptr, ptr, ptr, [25 x ptr], [9 x ptr], [53 x [2 x ptr]], ptr, ptr }
%struct.stringtable = type { ptr, i32, i32 }
%struct.TValue = type { %union.Value, i8 }
%union.Value = type { ptr }

; Function Attrs: nounwind uwtable
define hidden ptr @luaM_malloc_(ptr noundef %0, i64 noundef %1, i32 noundef %2) #0 {
  %4 = alloca ptr, align 8
  %5 = alloca ptr, align 8
  %6 = alloca i64, align 8
  %7 = alloca i32, align 4
  %8 = alloca ptr, align 8
  %9 = alloca ptr, align 8
  store ptr %0, ptr %5, align 8, !tbaa !4
  store i64 %1, ptr %6, align 8, !tbaa !16
  store i32 %2, ptr %7, align 4, !tbaa !10
  %10 = load i64, ptr %6, align 8, !tbaa !16
  %11 = icmp eq i64 %10, 0
  br i1 %11, label %12, label %13

12:                                               ; preds = %3
  store ptr null, ptr %4, align 8
  br label %53

13:                                               ; preds = %3
  call void @llvm.lifetime.start.p0(i64 8, ptr %8) #6
  %14 = load ptr, ptr %5, align 8, !tbaa !4
  %15 = getelementptr inbounds nuw %struct.lua_State, ptr %14, i32 0, i32 7
  %16 = load ptr, ptr %15, align 8, !tbaa !18
  store ptr %16, ptr %8, align 8, !tbaa !28
  call void @llvm.lifetime.start.p0(i64 8, ptr %9) #6
  %17 = load ptr, ptr %8, align 8, !tbaa !28
  %18 = getelementptr inbounds nuw %struct.global_State, ptr %17, i32 0, i32 0
  %19 = load ptr, ptr %18, align 8, !tbaa !29
  %20 = load ptr, ptr %8, align 8, !tbaa !28
  %21 = getelementptr inbounds nuw %struct.global_State, ptr %20, i32 0, i32 1
  %22 = load ptr, ptr %21, align 8, !tbaa !36
  %23 = load i32, ptr %7, align 4, !tbaa !10
  %24 = sext i32 %23 to i64
  %25 = load i64, ptr %6, align 8, !tbaa !16
  %26 = call ptr %19(ptr noundef %22, ptr noundef null, i64 noundef %24, i64 noundef %25)
  store ptr %26, ptr %9, align 8, !tbaa !9
  %27 = load ptr, ptr %9, align 8, !tbaa !9
  %28 = icmp eq ptr %27, null
  %29 = zext i1 %28 to i32
  %30 = icmp ne i32 %29, 0
  %31 = zext i1 %30 to i32
  %32 = sext i32 %31 to i64
  %33 = call i64 @llvm.expect.i64(i64 %32, i64 0)
  %34 = icmp ne i64 %33, 0
  br i1 %34, label %35, label %46

35:                                               ; preds = %13
  %36 = load ptr, ptr %5, align 8, !tbaa !4
  %37 = load i32, ptr %7, align 4, !tbaa !10
  %38 = sext i32 %37 to i64
  %39 = load i64, ptr %6, align 8, !tbaa !16
  %40 = call ptr @tryagain(ptr noundef %36, ptr noundef null, i64 noundef %38, i64 noundef %39)
  store ptr %40, ptr %9, align 8, !tbaa !9
  %41 = load ptr, ptr %9, align 8, !tbaa !9
  %42 = icmp eq ptr %41, null
  br i1 %42, label %43, label %45

43:                                               ; preds = %35
  %44 = load ptr, ptr %5, align 8, !tbaa !4
  call void @luaD_throw(ptr noundef %44, i32 noundef 4) #7
  unreachable

45:                                               ; preds = %35
  br label %46

46:                                               ; preds = %45, %13
  %47 = load i64, ptr %6, align 8, !tbaa !16
  %48 = load ptr, ptr %8, align 8, !tbaa !28
  %49 = getelementptr inbounds nuw %struct.global_State, ptr %48, i32 0, i32 3
  %50 = load i64, ptr %49, align 8, !tbaa !37
  %51 = sub nsw i64 %50, %47
  store i64 %51, ptr %49, align 8, !tbaa !37
  %52 = load ptr, ptr %9, align 8, !tbaa !9
  store ptr %52, ptr %4, align 8
  call void @llvm.lifetime.end.p0(i64 8, ptr %9) #6
  call void @llvm.lifetime.end.p0(i64 8, ptr %8) #6
  br label %53

53:                                               ; preds = %46, %12
  %54 = load ptr, ptr %4, align 8
  ret ptr %54
}