; Function Attrs: nounwind uwtable
define hidden ptr @luaM_malloc_(ptr noundef %0, i64 noundef %1, i32 noundef %2) local_unnamed_addr #0 {
  %4 = icmp eq i64 %1, 0
  br i1 %4, label %22, label %5

5:                                                ; preds = %3
  %6 = getelementptr inbounds nuw i8, ptr %0, i64 24
  %7 = load ptr, ptr %6, align 8, !tbaa !9
  %8 = load ptr, ptr %7, align 8, !tbaa !22
  %9 = getelementptr inbounds nuw i8, ptr %7, i64 8
  %10 = load ptr, ptr %9, align 8, !tbaa !29
  %11 = sext i32 %2 to i64
  %12 = tail call ptr %8(ptr noundef %10, ptr noundef null, i64 noundef %11, i64 noundef %1) #6
  %13 = icmp eq ptr %12, null
  br i1 %13, label %14, label %18, !prof !30

14:                                               ; preds = %5
  %15 = tail call fastcc ptr @tryagain(ptr noundef nonnull %0, ptr noundef null, i64 noundef %11, i64 noundef %1)
  %16 = icmp eq ptr %15, null
  br i1 %16, label %17, label %18

17:                                               ; preds = %14
  tail call void @luaD_throw(ptr noundef nonnull %0, i32 noundef 4) #5
  unreachable

18:                                               ; preds = %14, %5
  %.0 = phi ptr [ %15, %14 ], [ %12, %5 ]
  %19 = getelementptr inbounds nuw i8, ptr %7, i64 24
  %20 = load i64, ptr %19, align 8, !tbaa !31
  %21 = sub nsw i64 %20, %1
  store i64 %21, ptr %19, align 8, !tbaa !31
  br label %22

22:                                               ; preds = %3, %18
  %.015 = phi ptr [ %.0, %18 ], [ null, %3 ]
  ret ptr %.015
}